; Function Attrs: mustprogress uwtable
define hidden void @_ZNK7datalog10table_base13row_interface7displayERSo(ptr noundef nonnull align 8 dereferenceable(16) %0, ptr noundef nonnull align 8 dereferenceable(8) %1) unnamed_addr #3 align 2 personality ptr @__gxx_personality_v0 {
  %3 = alloca %class.svector, align 8
  call void @llvm.lifetime.start.p0(i64 8, ptr nonnull %3) #24
  store ptr null, ptr %3, align 8, !tbaa !328
  %4 = load ptr, ptr %0, align 8, !tbaa !3
  %5 = getelementptr inbounds nuw i8, ptr %4, i64 24
  %6 = load ptr, ptr %5, align 8
  invoke void %6(ptr noundef nonnull align 8 dereferenceable(16) %0, ptr noundef nonnull align 8 dereferenceable(8) %3)
          to label %7 unwind label %.loopexit.split-lp

7:                                                ; preds = %2
  %8 = load ptr, ptr %3, align 8, !tbaa !328
  %9 = icmp eq ptr %8, null
  br i1 %9, label %_ZNK6vectorImLb0EjE3endEv.exit.thread.i, label %_ZNK6vectorImLb0EjE3endEv.exit.i

_ZNK6vectorImLb0EjE3endEv.exit.thread.i:          ; preds = %7
  %10 = invoke noundef nonnull align 8 dereferenceable(8) ptr @_ZSt16__ostream_insertIcSt11char_traitsIcEERSt13basic_ostreamIT_T0_ES6_PKS3_l(ptr noundef nonnull align 8 dereferenceable(8) %1, ptr noundef nonnull @.str, i64 noundef 1)
          to label %_Z15print_containerIPKmEvRKT_S4_RSo.exit.i unwind label %.loopexit.split-lp

_ZNK6vectorImLb0EjE3endEv.exit.i:                 ; preds = %7
  %11 = getelementptr inbounds i8, ptr %8, i64 -4
  %12 = load i32, ptr %11, align 4, !tbaa !12
  %13 = zext i32 %12 to i64
  %14 = getelementptr inbounds nuw i64, ptr %8, i64 %13
  %15 = invoke noundef nonnull align 8 dereferenceable(8) ptr @_ZSt16__ostream_insertIcSt11char_traitsIcEERSt13basic_ostreamIT_T0_ES6_PKS3_l(ptr noundef nonnull align 8 dereferenceable(8) %1, ptr noundef nonnull @.str, i64 noundef 1)
          to label %.noexc4 unwind label %.loopexit.split-lp

.noexc4:                                          ; preds = %_ZNK6vectorImLb0EjE3endEv.exit.i
  %.not10.i.i = icmp eq i32 %12, 0
  br i1 %.not10.i.i, label %_Z15print_containerIPKmEvRKT_S4_RSo.exit.i, label %.lr.ph.i.i

.lr.ph.i.i:                                       ; preds = %.noexc4, %.noexc6
  %.012.i.i = phi i1 [ false, %.noexc6 ], [ true, %.noexc4 ]
  %.0911.i.i = phi ptr [ %20, %.noexc6 ], [ %8, %.noexc4 ]
  br i1 %.012.i.i, label %.noexc5, label %16

16:                                               ; preds = %.lr.ph.i.i
  %17 = invoke noundef nonnull align 8 dereferenceable(8) ptr @_ZSt16__ostream_insertIcSt11char_traitsIcEERSt13basic_ostreamIT_T0_ES6_PKS3_l(ptr noundef nonnull align 8 dereferenceable(8) %1, ptr noundef nonnull @.str.1, i64 noundef 1)
          to label %.noexc5 unwind label %.loopexit

.noexc5:                                          ; preds = %16, %.lr.ph.i.i
  %18 = load i64, ptr %.0911.i.i, align 8, !tbaa !332
  %19 = invoke noundef nonnull align 8 dereferenceable(8) ptr @_ZNSo9_M_insertImEERSoT_(ptr noundef nonnull align 8 dereferenceable(8) %1, i64 noundef %18)
          to label %.noexc6 unwind label %.loopexit

.noexc6:                                          ; preds = %.noexc5
  %20 = getelementptr inbounds nuw i8, ptr %.0911.i.i, i64 8
  %.not.i.i = icmp eq ptr %20, %14
  br i1 %.not.i.i, label %_Z15print_containerIPKmEvRKT_S4_RSo.exit.i, label %.lr.ph.i.i, !llvm.loop !388

_Z15print_containerIPKmEvRKT_S4_RSo.exit.i:       ; preds = %.noexc6, %_ZNK6vectorImLb0EjE3endEv.exit.thread.i, %.noexc4
  %21 = invoke noundef nonnull align 8 dereferenceable(8) ptr @_ZSt16__ostream_insertIcSt11char_traitsIcEERSt13basic_ostreamIT_T0_ES6_PKS3_l(ptr noundef nonnull align 8 dereferenceable(8) %1, ptr noundef nonnull @.str.2, i64 noundef 1)
          to label %_Z15print_containerI7svectorImjEEvRKT_RSo.exit unwind label %.loopexit.split-lp

_Z15print_containerI7svectorImjEEvRKT_RSo.exit:   ; preds = %_Z15print_containerIPKmEvRKT_S4_RSo.exit.i
  %22 = invoke noundef nonnull align 8 dereferenceable(8) ptr @_ZSt16__ostream_insertIcSt11char_traitsIcEERSt13basic_ostreamIT_T0_ES6_PKS3_l(ptr noundef nonnull align 8 dereferenceable(8) %1, ptr noundef nonnull @.str.12, i64 noundef 1)
          to label %_ZStlsISt11char_traitsIcEERSt13basic_ostreamIcT_ES5_PKc.exit unwind label %.loopexit.split-lp

_ZStlsISt11char_traitsIcEERSt13basic_ostreamIcT_ES5_PKc.exit: ; preds = %_Z15print_containerI7svectorImjEEvRKT_RSo.exit
  %23 = load ptr, ptr %3, align 8, !tbaa !328
  %.not.i.i9 = icmp eq ptr %23, null
  br i1 %.not.i.i9, label %_ZN6vectorImLb0EjED2Ev.exit, label %24

24:                                               ; preds = %_ZStlsISt11char_traitsIcEERSt13basic_ostreamIcT_ES5_PKc.exit
  %25 = getelementptr inbounds i8, ptr %23, i64 -8
  invoke void @_ZN6memory10deallocateEPv(ptr noundef nonnull %25)
          to label %_ZN6vectorImLb0EjED2Ev.exit unwind label %26

26:                                               ; preds = %24
  %27 = landingpad { ptr, i32 }
          catch ptr null
  %28 = extractvalue { ptr, i32 } %27, 0
  call void @__clang_call_terminate(ptr %28) #27
  unreachable

_ZN6vectorImLb0EjED2Ev.exit:                      ; preds = %_ZStlsISt11char_traitsIcEERSt13basic_ostreamIcT_ES5_PKc.exit, %24
  call void @llvm.lifetime.end.p0(i64 8, ptr nonnull %3) #24
  ret void

.loopexit:                                        ; preds = %16, %.noexc5
  %lpad.loopexit = landingpad { ptr, i32 }
          cleanup
  br label %29

.loopexit.split-lp:                               ; preds = %2, %_ZNK6vectorImLb0EjE3endEv.exit.thread.i, %_ZNK6vectorImLb0EjE3endEv.exit.i, %_Z15print_containerIPKmEvRKT_S4_RSo.exit.i, %_Z15print_containerI7svectorImjEEvRKT_RSo.exit
  %lpad.loopexit.split-lp = landingpad { ptr, i32 }
          cleanup
  br label %29

29:                                               ; preds = %.loopexit.split-lp, %.loopexit
  %lpad.phi = phi { ptr, i32 } [ %lpad.loopexit, %.loopexit ], [ %lpad.loopexit.split-lp, %.loopexit.split-lp ]
  call void @_ZN6vectorImLb0EjED2Ev(ptr noundef nonnull align 8 dereferenceable(8) %3) #24
  call void @llvm.lifetime.end.p0(i64 8, ptr nonnull %3) #24
  resume { ptr, i32 } %lpad.phi
}